	.syntax unified
	.cpu cortex-m4
	.fpu softvfp
	.eabi_attribute 20, 1
	.eabi_attribute 21, 1
	.eabi_attribute 23, 3
	.eabi_attribute 24, 1
	.eabi_attribute 25, 1
	.eabi_attribute 26, 1
	.eabi_attribute 30, 6
	.eabi_attribute 34, 1
	.eabi_attribute 18, 4
	.thumb
	.file	"entry.c"
	.text
.Ltext0:
	.cfi_sections	.debug_frame
	.section	.text.c_entry,"ax",%progbits
	.align	2
	.global	c_entry
	.thumb
	.thumb_func
	.type	c_entry, %function
c_entry:
.LFB0:
	.file 1 "entry.c"
	.loc 1 3 0
	.cfi_startproc
	@ args = 0, pretend = 0, frame = 0
	@ frame_needed = 1, uses_anonymous_args = 0
	@ link register save eliminated.
	push	{r4, r5, r6, r7, r8, r9, r10}
	.cfi_def_cfa_offset 28
	.cfi_offset 4, -28
	.cfi_offset 5, -24
	.cfi_offset 6, -20
	.cfi_offset 7, -16
	.cfi_offset 8, -12
	.cfi_offset 9, -8
	.cfi_offset 10, -4
	add	r7, sp, #0
	.cfi_def_cfa_register 7
	.loc 1 4 0
@ 4 "entry.c" 1
	
	ldr r0, =#-123
	ldr r1, =#122
	adds r2, r0, r1
	
	
@ 0 "" 2
	.thumb
.L2:
	.loc 1 13 0 discriminator 1
	b	.L2
	.cfi_endproc
.LFE0:
	.size	c_entry, .-c_entry
	.text
.Letext0: